; Function Attrs: mustprogress nofree norecurse nosync nounwind willreturn memory(read, argmem: readwrite, inaccessiblemem: none) uwtable
define internal noundef i32 @H5O__cache_chk_image_len(ptr noundef readonly captures(none) %0, ptr noundef writeonly captures(none) %1) #2 {
  %3 = load i8, ptr @H5O_init_g, align 1, !tbaa !3, !range !7, !noundef !8
  %4 = trunc nuw i8 %3 to i1
  %5 = load i8, ptr @H5_libterm_g, align 1, !range !7
  %6 = trunc nuw i8 %5 to i1
  %7 = xor i1 %6, true
  %8 = select i1 %4, i1 true, i1 %7
  br i1 %8, label %9, label %19, !prof !9

9:                                                ; preds = %2
  %10 = getelementptr inbounds nuw i8, ptr %0, i64 256
  %11 = load ptr, ptr %10, align 8, !tbaa !74
  %12 = getelementptr inbounds nuw i8, ptr %11, i64 392
  %13 = load ptr, ptr %12, align 8, !tbaa !43
  %14 = getelementptr inbounds nuw i8, ptr %0, i64 264
  %15 = load i32, ptr %14, align 8, !tbaa !71
  %16 = zext i32 %15 to i64
  %17 = getelementptr inbounds nuw %struct.H5O_chunk_t, ptr %13, i64 %16, i32 1
  %18 = load i64, ptr %17, align 8, !tbaa !44
  store i64 %18, ptr %1, align 8, !tbaa !10
  br label %19

19:                                               ; preds = %9, %2
  ret i32 0
}